; Function Attrs: nofree norecurse nosync nounwind memory(argmem: read) uwtable
define dso_local i64 @uv_wtf8_length_as_utf16(ptr noundef readonly captures(none) %0) local_unnamed_addr #2 {
  br label %2

2:                                                ; preds = %uv__wtf8_decode1.exit, %1
  %.09 = phi ptr [ %0, %1 ], [ %40, %uv__wtf8_decode1.exit ]
  %.06 = phi i64 [ 0, %1 ], [ %39, %uv__wtf8_decode1.exit ]
  %3 = load i8, ptr %.09, align 1
  %4 = zext i8 %3 to i32
  %5 = icmp sgt i8 %3, -1
  br i1 %5, label %uv__wtf8_decode1.exit, label %6

6:                                                ; preds = %2
  %7 = icmp samesign ult i8 %3, -62
  br i1 %7, label %uv__wtf8_decode1.exit.thread, label %8

8:                                                ; preds = %6
  %9 = getelementptr inbounds nuw i8, ptr %.09, i64 1
  %10 = load i8, ptr %9, align 1
  %11 = zext i8 %10 to i32
  %12 = and i32 %11, 192
  %.not.i = icmp eq i32 %12, 128
  br i1 %.not.i, label %13, label %uv__wtf8_decode1.exit.thread

13:                                               ; preds = %8
  %14 = icmp samesign ult i8 %3, -32
  br i1 %14, label %uv__wtf8_decode1.exit, label %15

15:                                               ; preds = %13
  %16 = getelementptr inbounds nuw i8, ptr %.09, i64 2
  %17 = load i8, ptr %16, align 1
  %18 = zext i8 %17 to i32
  %19 = and i32 %18, 192
  %.not27.i = icmp eq i32 %19, 128
  br i1 %.not27.i, label %20, label %uv__wtf8_decode1.exit.thread

20:                                               ; preds = %15
  %21 = shl nuw nsw i32 %4, 12
  %22 = shl nuw nsw i32 %11, 6
  %23 = and i32 %22, 4032
  %24 = or disjoint i32 %23, %21
  %25 = and i32 %18, 63
  %26 = or disjoint i32 %25, %24
  %27 = icmp samesign ult i8 %3, -16
  br i1 %27, label %uv__wtf8_decode1.exit, label %28

28:                                               ; preds = %20
  %29 = getelementptr inbounds nuw i8, ptr %.09, i64 3
  %30 = load i8, ptr %29, align 1
  %.not28.i = icmp slt i8 %30, -64
  %31 = icmp samesign ult i8 %3, -11
  %or.cond.i = and i1 %31, %.not28.i
  br i1 %or.cond.i, label %32, label %uv__wtf8_decode1.exit.thread

32:                                               ; preds = %28
  %33 = shl nuw nsw i32 %26, 6
  %.masked.i = and i32 %33, 2097088
  %34 = icmp samesign ult i32 %.masked.i, 1114112
  br i1 %34, label %35, label %uv__wtf8_decode1.exit.thread

35:                                               ; preds = %32
  %36 = icmp samesign ugt i32 %.masked.i, 65535
  %37 = zext i1 %36 to i64
  br label %uv__wtf8_decode1.exit

uv__wtf8_decode1.exit:                            ; preds = %20, %13, %35, %2
  %38 = phi i8 [ %3, %2 ], [ 1, %35 ], [ %10, %13 ], [ %17, %20 ]
  %.1 = phi ptr [ %.09, %2 ], [ %29, %35 ], [ %9, %13 ], [ %16, %20 ]
  %.0.i = phi i64 [ 0, %2 ], [ %37, %35 ], [ 0, %13 ], [ 0, %20 ]
  %spec.select = add i64 %.06, 1
  %39 = add i64 %spec.select, %.0.i
  %40 = getelementptr inbounds nuw i8, ptr %.1, i64 1
  %.not = icmp eq i8 %38, 0
  br i1 %.not, label %uv__wtf8_decode1.exit.thread, label %2

uv__wtf8_decode1.exit.thread:                     ; preds = %32, %28, %15, %8, %6, %uv__wtf8_decode1.exit
  %.0 = phi i64 [ %39, %uv__wtf8_decode1.exit ], [ -1, %6 ], [ -1, %8 ], [ -1, %15 ], [ -1, %28 ], [ -1, %32 ]
  ret i64 %.0
}